; Function Attrs: mustprogress nounwind uwtable
define dso_local noundef zeroext i1 @_ZN4node4quic7Session23GenerateNewConnectionIdEP10ngtcp2_cidmPh(ptr noundef nonnull align 8 dereferenceable(2616) %this, ptr nocapture noundef readnone %cid, i64 noundef %len, ptr noundef %token) local_unnamed_addr #5 align 2 {
entry:
  %cid_ = alloca %"class.node::quic::CID", align 8
  %new_token = alloca %"class.node::quic::StatelessResetToken", align 8
  %cid_factory = getelementptr inbounds i8, ptr %this, i64 944
  %0 = load ptr, ptr %cid_factory, align 8
  %vtable = load ptr, ptr %0, align 8
  %vfn = getelementptr inbounds i8, ptr %vtable, i64 16
  %1 = load ptr, ptr %vfn, align 8
  call void %1(ptr nonnull sret(%"class.node::quic::CID") align 8 %cid_, ptr noundef nonnull align 8 dereferenceable(8) %0, i64 noundef %len) #28
  %endpoint_ = getelementptr inbounds i8, ptr %this, i64 1776
  %2 = load ptr, ptr %endpoint_, align 8
  %reset_token_secret = getelementptr inbounds i8, ptr %2, i64 368
  call void @_ZN4node4quic19StatelessResetTokenC1EPhRKNS0_11TokenSecretERKNS0_3CIDE(ptr noundef nonnull align 8 dereferenceable(32) %new_token, ptr noundef %token, ptr noundef nonnull align 8 dereferenceable(24) %reset_token_secret, ptr noundef nonnull align 8 dereferenceable(48) %cid_) #28
  %3 = load ptr, ptr %endpoint_, align 8
  %scid = getelementptr inbounds i8, ptr %this, i64 1296
  call void @_ZN4node4quic8Endpoint12AssociateCIDERKNS0_3CIDES4_(ptr noundef nonnull align 8 dereferenceable(1520) %3, ptr noundef nonnull align 8 dereferenceable(48) %cid_, ptr noundef nonnull align 8 dereferenceable(48) %scid) #28
  %4 = load ptr, ptr %endpoint_, align 8
  call void @_ZN4node4quic8Endpoint28AssociateStatelessResetTokenERKNS0_19StatelessResetTokenEPNS0_7SessionE(ptr noundef nonnull align 8 dereferenceable(1520) %4, ptr noundef nonnull align 8 dereferenceable(32) %new_token, ptr noundef nonnull %this) #28
  ret i1 true
}